target datalayout = "e-m:e-p270:32:32-p271:32:32-p272:64:64-i64:64-i128:128-f80:128-n8:16:32:64-S128"
target triple = "x86_64-pc-linux-gnu"

%"struct.absl::debugging_internal::State" = type { ptr, ptr, i32, i32, i32, %"struct.absl::debugging_internal::ParseState" }
%"struct.absl::debugging_internal::ParseState" = type { i32, i32, i32, i32 }
%"class.absl::debugging_internal::(anonymous namespace)::ComplexityGuard" = type { ptr }

@.str.230 = private unnamed_addr constant [3 x i8] c"()\00", align 1

; Function Attrs: mustprogress nounwind uwtable
define internal noundef i64 @_ZN4absl18debugging_internalL6StrLenEPKc(ptr noundef %0) #3 {
  %2 = alloca ptr, align 8
  %3 = alloca i64, align 8
  store ptr %0, ptr %2, align 8, !tbaa !4
  call void @llvm.lifetime.start.p0(i64 8, ptr %3) #12
  store i64 0, ptr %3, align 8, !tbaa !9
  br label %4

4:                                                ; preds = %9, %1
  %5 = load ptr, ptr %2, align 8, !tbaa !4
  %6 = load i8, ptr %5, align 1, !tbaa !11
  %7 = sext i8 %6 to i32
  %8 = icmp ne i32 %7, 0
  br i1 %8, label %9, label %14

9:                                                ; preds = %4
  %10 = load ptr, ptr %2, align 8, !tbaa !4
  %11 = getelementptr inbounds nuw i8, ptr %10, i32 1
  store ptr %11, ptr %2, align 8, !tbaa !4
  %12 = load i64, ptr %3, align 8, !tbaa !9
  %13 = add i64 %12, 1
  store i64 %13, ptr %3, align 8, !tbaa !9
  br label %4, !llvm.loop !67

14:                                               ; preds = %4
  %15 = load i64, ptr %3, align 8, !tbaa !9
  call void @llvm.lifetime.end.p0(i64 8, ptr %3) #12
  ret i64 %15
}

; Function Attrs: mustprogress nounwind uwtable
define internal void @_ZN4absl18debugging_internal12_GLOBAL__N_115ComplexityGuardD2Ev(ptr noundef nonnull align 8 dereferenceable(8) %0) unnamed_addr #3 align 2 {
  %2 = alloca ptr, align 8
  store ptr %0, ptr %2, align 8, !tbaa !27
  %3 = load ptr, ptr %2, align 8
  %4 = getelementptr inbounds nuw %"class.absl::debugging_internal::(anonymous namespace)::ComplexityGuard", ptr %3, i32 0, i32 0
  %5 = load ptr, ptr %4, align 8, !tbaa !29
  %6 = getelementptr inbounds nuw %"struct.absl::debugging_internal::State", ptr %5, i32 0, i32 3
  %7 = load i32, ptr %6, align 4, !tbaa !20
  %8 = add nsw i32 %7, -1
  store i32 %8, ptr %6, align 4, !tbaa !20
  ret void
}

; Function Attrs: mustprogress uwtable
define internal noundef zeroext i1 @_ZN4absl18debugging_internalL11MaybeAppendEPNS0_5StateEPKc(ptr noundef %0, ptr noundef %1) #0 {
  %3 = alloca ptr, align 8
  %4 = alloca ptr, align 8
  %5 = alloca i64, align 8
  store ptr %0, ptr %3, align 8, !tbaa !16
  store ptr %1, ptr %4, align 8, !tbaa !4
  %6 = load ptr, ptr %3, align 8, !tbaa !16
  %7 = getelementptr inbounds nuw %"struct.absl::debugging_internal::State", ptr %6, i32 0, i32 5
  %8 = getelementptr inbounds nuw %"struct.absl::debugging_internal::ParseState", ptr %7, i32 0, i32 3
  %9 = load i32, ptr %8, align 4
  %10 = lshr i32 %9, 31
  %11 = icmp ne i32 %10, 0
  br i1 %11, label %12, label %18

12:                                               ; preds = %2
  call void @llvm.lifetime.start.p0(i64 8, ptr %5) #12
  %13 = load ptr, ptr %4, align 8, !tbaa !4
  %14 = call noundef i64 @_ZN4absl18debugging_internalL6StrLenEPKc(ptr noundef %13)
  store i64 %14, ptr %5, align 8, !tbaa !9
  %15 = load ptr, ptr %3, align 8, !tbaa !16
  %16 = load ptr, ptr %4, align 8, !tbaa !4
  %17 = load i64, ptr %5, align 8, !tbaa !9
  call void @_ZN4absl18debugging_internalL21MaybeAppendWithLengthEPNS0_5StateEPKcm(ptr noundef %15, ptr noundef %16, i64 noundef %17)
  call void @llvm.lifetime.end.p0(i64 8, ptr %5) #12
  br label %18

18:                                               ; preds = %12, %2
  ret i1 true
}

; Function Attrs: mustprogress nounwind uwtable
define internal noundef zeroext i1 @_ZN4absl18debugging_internalL13RestoreAppendEPNS0_5StateEb(ptr noundef %0, i1 noundef zeroext %1) #3 {
  %3 = alloca ptr, align 8
  %4 = alloca i8, align 1
  store ptr %0, ptr %3, align 8, !tbaa !16
  %5 = zext i1 %1 to i8
  store i8 %5, ptr %4, align 1, !tbaa !31
  %6 = load i8, ptr %4, align 1, !tbaa !31, !range !36, !noundef !37
  %7 = trunc i8 %6 to i1
  %8 = zext i1 %7 to i32
  %9 = load ptr, ptr %3, align 8, !tbaa !16
  %10 = getelementptr inbounds nuw %"struct.absl::debugging_internal::State", ptr %9, i32 0, i32 5
  %11 = getelementptr inbounds nuw %"struct.absl::debugging_internal::ParseState", ptr %10, i32 0, i32 3
  %12 = load i32, ptr %11, align 4
  %13 = and i32 %8, 1
  %14 = shl i32 %13, 31
  %15 = and i32 %12, 2147483647
  %16 = or i32 %15, %14
  store i32 %16, ptr %11, align 4
  ret i1 true
}

; Function Attrs: mustprogress uwtable
define internal noundef zeroext i1 @_ZN4absl18debugging_internalL9OneOrMoreEPFbPNS0_5StateEES2_(ptr noundef %0, ptr noundef %1) #0 {
  %3 = alloca i1, align 1
  %4 = alloca ptr, align 8
  %5 = alloca ptr, align 8
  store ptr %0, ptr %4, align 8, !tbaa !16
  store ptr %1, ptr %5, align 8, !tbaa !16
  %6 = load ptr, ptr %4, align 8, !tbaa !16
  %7 = load ptr, ptr %5, align 8, !tbaa !16
  %8 = call noundef zeroext i1 %6(ptr noundef %7)
  br i1 %8, label %9, label %16

9:                                                ; preds = %2
  br label %10

10:                                               ; preds = %14, %9
  %11 = load ptr, ptr %4, align 8, !tbaa !16
  %12 = load ptr, ptr %5, align 8, !tbaa !16
  %13 = call noundef zeroext i1 %11(ptr noundef %12)
  br i1 %13, label %14, label %15

14:                                               ; preds = %10
  br label %10, !llvm.loop !55

15:                                               ; preds = %10
  store i1 true, ptr %3, align 1
  br label %17

16:                                               ; preds = %2
  store i1 false, ptr %3, align 1
  br label %17

17:                                               ; preds = %16, %15
  %18 = load i1, ptr %3, align 1
  ret i1 %18
}

; Function Attrs: mustprogress uwtable
define internal noundef zeroext i1 @_ZN4absl18debugging_internalL10ZeroOrMoreEPFbPNS0_5StateEES2_(ptr noundef %0, ptr noundef %1) #0 {
  %3 = alloca ptr, align 8
  %4 = alloca ptr, align 8
  store ptr %0, ptr %3, align 8, !tbaa !16
  store ptr %1, ptr %4, align 8, !tbaa !16
  br label %5

5:                                                ; preds = %9, %2
  %6 = load ptr, ptr %3, align 8, !tbaa !16
  %7 = load ptr, ptr %4, align 8, !tbaa !16
  %8 = call noundef zeroext i1 %6(ptr noundef %7)
  br i1 %8, label %9, label %10

9:                                                ; preds = %5
  br label %5, !llvm.loop !56

10:                                               ; preds = %5
  ret i1 true
}

; Function Attrs: mustprogress nounwind uwtable
define internal noundef zeroext i1 @_ZN4absl18debugging_internalL13DisableAppendEPNS0_5StateE(ptr noundef %0) #3 {
  %2 = alloca ptr, align 8
  store ptr %0, ptr %2, align 8, !tbaa !16
  %3 = load ptr, ptr %2, align 8, !tbaa !16
  %4 = getelementptr inbounds nuw %"struct.absl::debugging_internal::State", ptr %3, i32 0, i32 5
  %5 = getelementptr inbounds nuw %"struct.absl::debugging_internal::ParseState", ptr %4, i32 0, i32 3
  %6 = load i32, ptr %5, align 4
  %7 = and i32 %6, 2147483647
  %8 = or i32 %7, 0
  store i32 %8, ptr %5, align 4
  ret i1 true
}

; Function Attrs: mustprogress nounwind uwtable
define internal noundef zeroext i1 @_ZNK4absl18debugging_internal12_GLOBAL__N_115ComplexityGuard12IsTooComplexEv(ptr noundef nonnull align 8 dereferenceable(8) %0) #3 align 2 {
  %2 = alloca i1, align 1
  %3 = alloca ptr, align 8
  store ptr %0, ptr %3, align 8, !tbaa !27
  %4 = load ptr, ptr %3, align 8
  %5 = getelementptr inbounds nuw %"class.absl::debugging_internal::(anonymous namespace)::ComplexityGuard", ptr %4, i32 0, i32 0
  %6 = load ptr, ptr %5, align 8, !tbaa !29
  %7 = getelementptr inbounds nuw %"struct.absl::debugging_internal::State", ptr %6, i32 0, i32 3
  %8 = load i32, ptr %7, align 4, !tbaa !20
  %9 = icmp sgt i32 %8, 256
  br i1 %9, label %16, label %10

10:                                               ; preds = %1
  %11 = getelementptr inbounds nuw %"class.absl::debugging_internal::(anonymous namespace)::ComplexityGuard", ptr %4, i32 0, i32 0
  %12 = load ptr, ptr %11, align 8, !tbaa !29
  %13 = getelementptr inbounds nuw %"struct.absl::debugging_internal::State", ptr %12, i32 0, i32 4
  %14 = load i32, ptr %13, align 8, !tbaa !21
  %15 = icmp sgt i32 %14, 131072
  br i1 %15, label %16, label %17

16:                                               ; preds = %10, %1
  store i1 true, ptr %2, align 1
  br label %18

17:                                               ; preds = %10
  store i1 false, ptr %2, align 1
  br label %18

18:                                               ; preds = %17, %16
  %19 = load i1, ptr %2, align 1
  ret i1 %19
}

; Function Attrs: mustprogress nounwind uwtable
define internal void @_ZN4absl18debugging_internal12_GLOBAL__N_115ComplexityGuardC2EPNS0_5StateE(ptr noundef nonnull align 8 dereferenceable(8) %0, ptr noundef %1) unnamed_addr #3 align 2 {
  %3 = alloca ptr, align 8
  %4 = alloca ptr, align 8
  store ptr %0, ptr %3, align 8, !tbaa !27
  store ptr %1, ptr %4, align 8, !tbaa !16
  %5 = load ptr, ptr %3, align 8
  %6 = getelementptr inbounds nuw %"class.absl::debugging_internal::(anonymous namespace)::ComplexityGuard", ptr %5, i32 0, i32 0
  %7 = load ptr, ptr %4, align 8, !tbaa !16
  store ptr %7, ptr %6, align 8, !tbaa !29
  %8 = load ptr, ptr %4, align 8, !tbaa !16
  %9 = getelementptr inbounds nuw %"struct.absl::debugging_internal::State", ptr %8, i32 0, i32 3
  %10 = load i32, ptr %9, align 4, !tbaa !20
  %11 = add nsw i32 %10, 1
  store i32 %11, ptr %9, align 4, !tbaa !20
  %12 = load ptr, ptr %4, align 8, !tbaa !16
  %13 = getelementptr inbounds nuw %"struct.absl::debugging_internal::State", ptr %12, i32 0, i32 4
  %14 = load i32, ptr %13, align 8, !tbaa !21
  %15 = add nsw i32 %14, 1
  store i32 %15, ptr %13, align 8, !tbaa !21
  ret void
}

; Function Attrs: mustprogress uwtable
define internal noundef zeroext i1 @_ZN4absl18debugging_internalL21ParseBareFunctionTypeEPNS0_5StateE(ptr noundef %0) #0 personality ptr @__gxx_personality_v0 {
  %2 = alloca i1, align 1
  %3 = alloca ptr, align 8
  %4 = alloca %"class.absl::debugging_internal::(anonymous namespace)::ComplexityGuard", align 8
  %5 = alloca i32, align 4
  %6 = alloca %"struct.absl::debugging_internal::ParseState", align 4
  %7 = alloca ptr, align 8
  %8 = alloca i32, align 4
  store ptr %0, ptr %3, align 8, !tbaa !16
  call void @llvm.lifetime.start.p0(i64 8, ptr %4) #12
  %9 = load ptr, ptr %3, align 8, !tbaa !16
  call void @_ZN4absl18debugging_internal12_GLOBAL__N_115ComplexityGuardC2EPNS0_5StateE(ptr noundef nonnull align 8 dereferenceable(8) %4, ptr noundef %9)
  %10 = call noundef zeroext i1 @_ZNK4absl18debugging_internal12_GLOBAL__N_115ComplexityGuard12IsTooComplexEv(ptr noundef nonnull align 8 dereferenceable(8) %4)
  br i1 %10, label %11, label %12

11:                                               ; preds = %1
  store i1 false, ptr %2, align 1
  store i32 1, ptr %5, align 4
  br label %42

12:                                               ; preds = %1
  call void @llvm.lifetime.start.p0(i64 16, ptr %6) #12
  %13 = load ptr, ptr %3, align 8, !tbaa !16
  %14 = getelementptr inbounds nuw %"struct.absl::debugging_internal::State", ptr %13, i32 0, i32 5
  call void @llvm.memcpy.p0.p0.i64(ptr align 4 %6, ptr align 4 %14, i64 16, i1 false), !tbaa.struct !39
  %15 = load ptr, ptr %3, align 8, !tbaa !16
  %16 = call noundef zeroext i1 @_ZN4absl18debugging_internalL13DisableAppendEPNS0_5StateE(ptr noundef %15)
  %17 = load ptr, ptr %3, align 8, !tbaa !16
  %18 = invoke noundef zeroext i1 @_ZN4absl18debugging_internalL10ZeroOrMoreEPFbPNS0_5StateEES2_(ptr noundef @_ZN4absl18debugging_internalL22ParseOverloadAttributeEPNS0_5StateE, ptr noundef %17)
          to label %19 unwind label %34

19:                                               ; preds = %12
  br i1 %18, label %20, label %38

20:                                               ; preds = %19
  %21 = load ptr, ptr %3, align 8, !tbaa !16
  %22 = invoke noundef zeroext i1 @_ZN4absl18debugging_internalL9OneOrMoreEPFbPNS0_5StateEES2_(ptr noundef @_ZN4absl18debugging_internalL9ParseTypeEPNS0_5StateE, ptr noundef %21)
          to label %23 unwind label %34

23:                                               ; preds = %20
  br i1 %22, label %24, label %38

24:                                               ; preds = %23
  %25 = load ptr, ptr %3, align 8, !tbaa !16
  %26 = getelementptr inbounds nuw %"struct.absl::debugging_internal::ParseState", ptr %6, i32 0, i32 3
  %27 = load i32, ptr %26, align 4
  %28 = lshr i32 %27, 31
  %29 = icmp ne i32 %28, 0
  %30 = call noundef zeroext i1 @_ZN4absl18debugging_internalL13RestoreAppendEPNS0_5StateEb(ptr noundef %25, i1 noundef zeroext %29)
  %31 = load ptr, ptr %3, align 8, !tbaa !16
  %32 = invoke noundef zeroext i1 @_ZN4absl18debugging_internalL11MaybeAppendEPNS0_5StateEPKc(ptr noundef %31, ptr noundef @.str.230)
          to label %33 unwind label %34

33:                                               ; preds = %24
  store i1 true, ptr %2, align 1
  store i32 1, ptr %5, align 4
  br label %41

34:                                               ; preds = %24, %20, %12
  %35 = landingpad { ptr, i32 }
          cleanup
  %36 = extractvalue { ptr, i32 } %35, 0
  store ptr %36, ptr %7, align 8
  %37 = extractvalue { ptr, i32 } %35, 1
  store i32 %37, ptr %8, align 4
  call void @llvm.lifetime.end.p0(i64 16, ptr %6) #12
  call void @_ZN4absl18debugging_internal12_GLOBAL__N_115ComplexityGuardD2Ev(ptr noundef nonnull align 8 dereferenceable(8) %4) #12
  call void @llvm.lifetime.end.p0(i64 8, ptr %4) #12
  br label %44

38:                                               ; preds = %23, %19
  %39 = load ptr, ptr %3, align 8, !tbaa !16
  %40 = getelementptr inbounds nuw %"struct.absl::debugging_internal::State", ptr %39, i32 0, i32 5
  call void @llvm.memcpy.p0.p0.i64(ptr align 4 %40, ptr align 4 %6, i64 16, i1 false), !tbaa.struct !39
  store i1 false, ptr %2, align 1
  store i32 1, ptr %5, align 4
  br label %41

41:                                               ; preds = %38, %33
  call void @llvm.lifetime.end.p0(i64 16, ptr %6) #12
  br label %42

42:                                               ; preds = %41, %11
  call void @_ZN4absl18debugging_internal12_GLOBAL__N_115ComplexityGuardD2Ev(ptr noundef nonnull align 8 dereferenceable(8) %4) #12
  call void @llvm.lifetime.end.p0(i64 8, ptr %4) #12
  %43 = load i1, ptr %2, align 1
  ret i1 %43

44:                                               ; preds = %34
  %45 = load ptr, ptr %7, align 8
  %46 = load i32, ptr %8, align 4
  %47 = insertvalue { ptr, i32 } poison, ptr %45, 0
  %48 = insertvalue { ptr, i32 } %47, i32 %46, 1
  resume { ptr, i32 } %48
}