; Function Attrs: mustprogress nofree nosync memory(readwrite, inaccessiblemem: none) uwtable
define internal fastcc noundef zeroext i1 @_ZN4absl18debugging_internalL21ParseBareFunctionTypeEPNS0_5StateE(ptr noundef %0) unnamed_addr #6 personality ptr @__gxx_personality_v0 {
  %2 = alloca %"struct.absl::debugging_internal::ParseState", align 4
  %.sroa.0 = alloca { i32, i32, i32 }, align 8
  %3 = getelementptr inbounds nuw i8, ptr %0, i64 20
  %4 = load i32, ptr %3, align 4, !tbaa !17
  %5 = add nsw i32 %4, 1
  store i32 %5, ptr %3, align 4, !tbaa !17
  %6 = getelementptr inbounds nuw i8, ptr %0, i64 24
  %7 = load i32, ptr %6, align 8, !tbaa !15
  %8 = add nsw i32 %7, 1
  store i32 %8, ptr %6, align 8, !tbaa !15
  %9 = icmp sgt i32 %4, 255
  %10 = icmp sgt i32 %7, 131071
  %or.cond = select i1 %9, i1 true, i1 %10
  br i1 %or.cond, label %_ZNK4absl18debugging_internal12_GLOBAL__N_115ComplexityGuard12IsTooComplexEv.exit.thread, label %11

11:                                               ; preds = %1
  call void @llvm.lifetime.start.p0(i64 12, ptr nonnull %.sroa.0)
  %12 = getelementptr inbounds nuw i8, ptr %0, i64 28
  call void @llvm.memcpy.p0.p0.i64(ptr noundef nonnull align 8 dereferenceable(12) %.sroa.0, ptr noundef nonnull align 4 dereferenceable(12) %12, i64 12, i1 false), !tbaa.struct !31
  %.sroa.5.0..sroa_idx = getelementptr inbounds nuw i8, ptr %0, i64 40
  %.sroa.5.0.copyload = load i32, ptr %.sroa.5.0..sroa_idx, align 4, !tbaa !4
  %13 = and i32 %.sroa.5.0.copyload, 2147483647
  store i32 %13, ptr %.sroa.5.0..sroa_idx, align 4
  %14 = add nsw i32 %4, 2
  store i32 %14, ptr %3, align 4, !tbaa !17
  %15 = add nsw i32 %7, 2
  store i32 %15, ptr %6, align 8, !tbaa !15
  %16 = icmp sgt i32 %4, 254
  %17 = icmp sgt i32 %7, 131070
  %or.cond2833 = select i1 %16, i1 true, i1 %17
  br i1 %or.cond2833, label %_ZN4absl18debugging_internalL10ZeroOrMoreEPFbPNS0_5StateEES2_.exit, label %.lr.ph

.lr.ph:                                           ; preds = %11, %.noexc
  %18 = phi i32 [ %44, %.noexc ], [ %8, %11 ]
  %19 = phi i32 [ %42, %.noexc ], [ %14, %11 ]
  %20 = phi i32 [ %43, %.noexc ], [ %5, %11 ]
  call void @llvm.lifetime.start.p0(i64 16, ptr nonnull %2)
  call void @llvm.memcpy.p0.p0.i64(ptr noundef nonnull align 4 dereferenceable(16) %2, ptr noundef nonnull align 4 dereferenceable(16) %12, i64 16, i1 false), !tbaa.struct !31
  %21 = add nsw i32 %20, 2
  store i32 %21, ptr %3, align 4, !tbaa !17
  %22 = add nsw i32 %18, 2
  store i32 %22, ptr %6, align 8, !tbaa !15
  %23 = icmp sgt i32 %20, 254
  %24 = icmp sgt i32 %18, 131070
  %or.cond.i = select i1 %23, i1 true, i1 %24
  br i1 %or.cond.i, label %.thread, label %25

25:                                               ; preds = %.lr.ph
  %.val11.i = load ptr, ptr %0, align 8, !tbaa !7
  %.val12.i = load i32, ptr %12, align 4, !tbaa !16
  %26 = sext i32 %.val12.i to i64
  %27 = getelementptr inbounds i8, ptr %.val11.i, i64 %26
  %28 = load i8, ptr %27, align 1, !tbaa !4
  %29 = icmp eq i8 %28, 85
  br i1 %29, label %30, label %.thread

30:                                               ; preds = %25
  %31 = getelementptr inbounds nuw i8, ptr %27, i64 1
  %32 = load i8, ptr %31, align 1, !tbaa !4
  %33 = icmp eq i8 %32, 97
  br i1 %33, label %34, label %.thread

.thread:                                          ; preds = %30, %25, %.lr.ph
  store i32 %19, ptr %3, align 4, !tbaa !17
  br label %.noexc.thread26

34:                                               ; preds = %30
  %35 = add nsw i32 %.val12.i, 2
  store i32 %35, ptr %12, align 4, !tbaa !16
  store i32 %19, ptr %3, align 4, !tbaa !17
  %36 = invoke fastcc noundef zeroext i1 @_ZN4absl18debugging_internalL9ParseNameEPNS0_5StateE(ptr noundef nonnull %0)
          to label %37 unwind label %38

37:                                               ; preds = %34
  br i1 %36, label %.noexc, label %.noexc.thread26.loopexit

38:                                               ; preds = %34
  %39 = landingpad { ptr, i32 }
          cleanup
  call void @llvm.lifetime.end.p0(i64 16, ptr nonnull %2)
  %40 = load i32, ptr %3, align 4, !tbaa !17
  %41 = add nsw i32 %40, -1
  store i32 %41, ptr %3, align 4, !tbaa !17
  br label %.body

.noexc.thread26.loopexit:                         ; preds = %37
  %storemerge.in.pre.pre = load i32, ptr %3, align 4, !tbaa !17
  br label %.noexc.thread26

.noexc.thread26:                                  ; preds = %.noexc.thread26.loopexit, %.thread
  %storemerge.in.pre = phi i32 [ %storemerge.in.pre.pre, %.noexc.thread26.loopexit ], [ %19, %.thread ]
  call void @llvm.memcpy.p0.p0.i64(ptr noundef nonnull align 4 dereferenceable(16) %12, ptr noundef nonnull align 4 dereferenceable(16) %2, i64 16, i1 false), !tbaa.struct !31
  call void @llvm.lifetime.end.p0(i64 16, ptr nonnull %2)
  br label %_ZN4absl18debugging_internalL10ZeroOrMoreEPFbPNS0_5StateEES2_.exit

.noexc:                                           ; preds = %37
  call void @llvm.lifetime.end.p0(i64 16, ptr nonnull %2)
  %42 = load i32, ptr %3, align 4, !tbaa !17
  %43 = add nsw i32 %42, -1
  %44 = load i32, ptr %6, align 8, !tbaa !15
  %45 = add nsw i32 %44, 1
  store i32 %45, ptr %6, align 8, !tbaa !15
  %46 = icmp sgt i32 %42, 256
  %47 = icmp sgt i32 %44, 131071
  %or.cond28 = select i1 %46, i1 true, i1 %47
  br i1 %or.cond28, label %_ZN4absl18debugging_internalL10ZeroOrMoreEPFbPNS0_5StateEES2_.exit, label %.lr.ph, !llvm.loop !33

_ZN4absl18debugging_internalL10ZeroOrMoreEPFbPNS0_5StateEES2_.exit: ; preds = %.noexc, %11, %.noexc.thread26
  %storemerge.in = phi i32 [ %14, %11 ], [ %storemerge.in.pre, %.noexc.thread26 ], [ %42, %.noexc ]
  %storemerge = add nsw i32 %storemerge.in, -1
  store i32 %storemerge, ptr %3, align 4, !tbaa !17
  %48 = invoke fastcc noundef zeroext i1 @_ZN4absl18debugging_internalL9ParseTypeEPNS0_5StateE(ptr noundef nonnull %0)
          to label %.noexc14 unwind label %.loopexit.split-lp

.noexc14:                                         ; preds = %_ZN4absl18debugging_internalL10ZeroOrMoreEPFbPNS0_5StateEES2_.exit
  br i1 %48, label %.preheader.i, label %_ZN4absl18debugging_internalL9OneOrMoreEPFbPNS0_5StateEES2_.exit.thread

.preheader.i:                                     ; preds = %.noexc14, %.noexc15
  %49 = invoke fastcc noundef zeroext i1 @_ZN4absl18debugging_internalL9ParseTypeEPNS0_5StateE(ptr noundef nonnull %0)
          to label %.noexc15 unwind label %.loopexit

.noexc15:                                         ; preds = %.preheader.i
  br i1 %49, label %.preheader.i, label %_ZN4absl18debugging_internalL9OneOrMoreEPFbPNS0_5StateEES2_.exit, !llvm.loop !34

_ZN4absl18debugging_internalL9OneOrMoreEPFbPNS0_5StateEES2_.exit: ; preds = %.noexc15
  %50 = load i32, ptr %.sroa.5.0..sroa_idx, align 4
  %51 = and i32 %.sroa.5.0.copyload, -2147483648
  %52 = and i32 %50, 2147483647
  %53 = or disjoint i32 %52, %51
  store i32 %53, ptr %.sroa.5.0..sroa_idx, align 4
  %.not.i = icmp sgt i32 %.sroa.5.0.copyload, -1
  br i1 %.not.i, label %_ZN4absl18debugging_internalL11MaybeAppendEPNS0_5StateEPKc.exit, label %.lr.ph.i.i.preheader

.lr.ph.i.i.preheader:                             ; preds = %_ZN4absl18debugging_internalL9OneOrMoreEPFbPNS0_5StateEES2_.exit
  tail call fastcc void @_ZN4absl18debugging_internalL21MaybeAppendWithLengthEPNS0_5StateEPKcm(ptr noundef nonnull %0, ptr noundef nonnull @.str.230, i64 noundef 2)
  br label %_ZN4absl18debugging_internalL11MaybeAppendEPNS0_5StateEPKc.exit

.loopexit:                                        ; preds = %.preheader.i
  %lpad.loopexit = landingpad { ptr, i32 }
          cleanup
  br label %.body

.loopexit.split-lp:                               ; preds = %_ZN4absl18debugging_internalL10ZeroOrMoreEPFbPNS0_5StateEES2_.exit
  %lpad.loopexit.split-lp = landingpad { ptr, i32 }
          cleanup
  br label %.body

.body:                                            ; preds = %.loopexit, %.loopexit.split-lp, %38
  %eh.lpad-body = phi { ptr, i32 } [ %39, %38 ], [ %lpad.loopexit, %.loopexit ], [ %lpad.loopexit.split-lp, %.loopexit.split-lp ]
  call void @llvm.lifetime.end.p0(i64 12, ptr nonnull %.sroa.0)
  %54 = load i32, ptr %3, align 4, !tbaa !17
  %55 = add nsw i32 %54, -1
  store i32 %55, ptr %3, align 4, !tbaa !17
  resume { ptr, i32 } %eh.lpad-body

_ZN4absl18debugging_internalL9OneOrMoreEPFbPNS0_5StateEES2_.exit.thread: ; preds = %.noexc14
  call void @llvm.memcpy.p0.p0.i64(ptr noundef nonnull align 4 dereferenceable(12) %12, ptr noundef nonnull align 8 dereferenceable(12) %.sroa.0, i64 12, i1 false), !tbaa.struct !31
  store i32 %.sroa.5.0.copyload, ptr %.sroa.5.0..sroa_idx, align 4, !tbaa !4
  br label %_ZN4absl18debugging_internalL11MaybeAppendEPNS0_5StateEPKc.exit

_ZN4absl18debugging_internalL11MaybeAppendEPNS0_5StateEPKc.exit: ; preds = %.lr.ph.i.i.preheader, %_ZN4absl18debugging_internalL9OneOrMoreEPFbPNS0_5StateEES2_.exit, %_ZN4absl18debugging_internalL9OneOrMoreEPFbPNS0_5StateEES2_.exit.thread
  call void @llvm.lifetime.end.p0(i64 12, ptr nonnull %.sroa.0)
  %.pre = load i32, ptr %3, align 4, !tbaa !17
  %56 = add nsw i32 %.pre, -1
  br label %_ZNK4absl18debugging_internal12_GLOBAL__N_115ComplexityGuard12IsTooComplexEv.exit.thread

_ZNK4absl18debugging_internal12_GLOBAL__N_115ComplexityGuard12IsTooComplexEv.exit.thread: ; preds = %1, %_ZN4absl18debugging_internalL11MaybeAppendEPNS0_5StateEPKc.exit
  %57 = phi i32 [ %56, %_ZN4absl18debugging_internalL11MaybeAppendEPNS0_5StateEPKc.exit ], [ %4, %1 ]
  %.0 = phi i1 [ %48, %_ZN4absl18debugging_internalL11MaybeAppendEPNS0_5StateEPKc.exit ], [ false, %1 ]
  store i32 %57, ptr %3, align 4, !tbaa !17
  ret i1 %.0
}